; Function Attrs: nounwind uwtable
define noalias noundef ptr @Gia_ManOrderPios(ptr noundef readonly captures(none) %0, ptr noundef readonly captures(none) %1) local_unnamed_addr #0 {
  %3 = getelementptr i8, ptr %0, i64 136
  %.val18 = load i32, ptr %3, align 8
  %4 = getelementptr i8, ptr %0, i64 140
  %.val19 = load i32, ptr %4, align 4
  %5 = add nsw i32 %.val19, %.val18
  %6 = tail call noalias dereferenceable_or_null(16) ptr @malloc(i64 noundef 16) #14
  %7 = add i32 %5, -1
  %or.cond.i = icmp ult i32 %7, 7
  %spec.store.select.i = select i1 %or.cond.i, i32 8, i32 %5
  %8 = getelementptr inbounds nuw i8, ptr %6, i64 4
  store i32 0, ptr %8, align 4
  store i32 %spec.store.select.i, ptr %6, align 8
  %.not.i = icmp eq i32 %spec.store.select.i, 0
  br i1 %.not.i, label %Vec_PtrAlloc.exit, label %9

9:                                                ; preds = %2
  %10 = sext i32 %spec.store.select.i to i64
  %11 = shl nsw i64 %10, 3
  %12 = tail call noalias ptr @malloc(i64 noundef %11) #14
  br label %Vec_PtrAlloc.exit

Vec_PtrAlloc.exit:                                ; preds = %2, %9
  %13 = phi ptr [ %12, %9 ], [ null, %2 ]
  %14 = getelementptr inbounds nuw i8, ptr %6, i64 8
  store ptr %13, ptr %14, align 8
  %15 = getelementptr i8, ptr %1, i64 32
  %16 = getelementptr inbounds nuw i8, ptr %1, i64 24
  %17 = load i32, ptr %16, align 8
  %18 = icmp sgt i32 %17, 0
  br i1 %18, label %.lr.ph, label %.critedge

.lr.ph:                                           ; preds = %Vec_PtrAlloc.exit
  %19 = getelementptr i8, ptr %0, i64 24
  %20 = getelementptr i8, ptr %0, i64 16
  br label %21

21:                                               ; preds = %.lr.ph, %90
  %indvars.iv = phi i64 [ 0, %.lr.ph ], [ %indvars.iv.next, %90 ]
  %.val = load ptr, ptr %15, align 8
  %.not = icmp eq ptr %.val, null
  br i1 %.not, label %.critedge, label %22

22:                                               ; preds = %21
  %23 = getelementptr inbounds nuw %struct.Gia_Obj_t_, ptr %.val, i64 %indvars.iv
  %.val20 = load i64, ptr %23, align 4
  %24 = and i64 %.val20, 2684354559
  %narrow.i.not = icmp eq i64 %24, 2684354559
  br i1 %narrow.i.not, label %25, label %54

25:                                               ; preds = %22
  %26 = lshr i64 %.val20, 32
  %27 = and i64 %26, 536870911
  %.val23 = load ptr, ptr %20, align 8
  %28 = getelementptr i8, ptr %.val23, i64 8
  %.val23.val = load ptr, ptr %28, align 8
  %29 = getelementptr inbounds nuw ptr, ptr %.val23.val, i64 %27
  %30 = load ptr, ptr %29, align 8
  %31 = load i32, ptr %8, align 4
  %32 = load i32, ptr %6, align 8
  %33 = icmp eq i32 %31, %32
  br i1 %33, label %34, label %.Vec_PtrGrow.exit11_crit_edge.i

.Vec_PtrGrow.exit11_crit_edge.i:                  ; preds = %25
  %.pre.i = load ptr, ptr %14, align 8
  br label %.sink.split

34:                                               ; preds = %25
  %35 = icmp slt i32 %31, 16
  br i1 %35, label %36, label %43

36:                                               ; preds = %34
  %37 = load ptr, ptr %14, align 8
  %.not9.i.i = icmp eq ptr %37, null
  br i1 %.not9.i.i, label %40, label %38

38:                                               ; preds = %36
  %39 = tail call dereferenceable_or_null(128) ptr @realloc(ptr noundef nonnull %37, i64 noundef 128) #13
  br label %Vec_PtrGrow.exit.i

40:                                               ; preds = %36
  %41 = tail call noalias dereferenceable_or_null(128) ptr @malloc(i64 noundef 128) #14
  br label %Vec_PtrGrow.exit.i

Vec_PtrGrow.exit.i:                               ; preds = %40, %38
  %42 = phi ptr [ %39, %38 ], [ %41, %40 ]
  store ptr %42, ptr %14, align 8
  store i32 16, ptr %6, align 8
  br label %.sink.split

43:                                               ; preds = %34
  %44 = shl nuw nsw i32 %31, 1
  %45 = load ptr, ptr %14, align 8
  %.not9.i10.i = icmp eq ptr %45, null
  %46 = zext nneg i32 %44 to i64
  %47 = shl nuw nsw i64 %46, 3
  br i1 %.not9.i10.i, label %50, label %48

48:                                               ; preds = %43
  %49 = tail call ptr @realloc(ptr noundef nonnull %45, i64 noundef %47) #13
  br label %52

50:                                               ; preds = %43
  %51 = tail call noalias ptr @malloc(i64 noundef %47) #14
  br label %52

52:                                               ; preds = %50, %48
  %53 = phi ptr [ %49, %48 ], [ %51, %50 ]
  store ptr %53, ptr %14, align 8
  store i32 %44, ptr %6, align 8
  br label %.sink.split

54:                                               ; preds = %22
  %55 = and i64 %.val20, 2147483648
  %.not.i26 = icmp eq i64 %55, 0
  %56 = and i64 %.val20, 536870911
  %57 = icmp eq i64 %56, 536870911
  %narrow.i27.not = or i1 %.not.i26, %57
  br i1 %narrow.i27.not, label %90, label %58

58:                                               ; preds = %54
  %59 = lshr i64 %.val20, 32
  %60 = and i64 %59, 536870911
  %.val25 = load ptr, ptr %19, align 8
  %61 = getelementptr i8, ptr %.val25, i64 8
  %.val25.val = load ptr, ptr %61, align 8
  %62 = getelementptr inbounds nuw ptr, ptr %.val25.val, i64 %60
  %63 = load ptr, ptr %62, align 8
  %64 = load i32, ptr %8, align 4
  %65 = load i32, ptr %6, align 8
  %66 = icmp eq i32 %64, %65
  br i1 %66, label %67, label %.Vec_PtrGrow.exit11_crit_edge.i28

.Vec_PtrGrow.exit11_crit_edge.i28:                ; preds = %58
  %.pre.i30 = load ptr, ptr %14, align 8
  br label %.sink.split

67:                                               ; preds = %58
  %68 = icmp slt i32 %64, 16
  br i1 %68, label %69, label %76

69:                                               ; preds = %67
  %70 = load ptr, ptr %14, align 8
  %.not9.i.i32 = icmp eq ptr %70, null
  br i1 %.not9.i.i32, label %73, label %71

71:                                               ; preds = %69
  %72 = tail call dereferenceable_or_null(128) ptr @realloc(ptr noundef nonnull %70, i64 noundef 128) #13
  br label %Vec_PtrGrow.exit.i33

73:                                               ; preds = %69
  %74 = tail call noalias dereferenceable_or_null(128) ptr @malloc(i64 noundef 128) #14
  br label %Vec_PtrGrow.exit.i33

Vec_PtrGrow.exit.i33:                             ; preds = %73, %71
  %75 = phi ptr [ %72, %71 ], [ %74, %73 ]
  store ptr %75, ptr %14, align 8
  store i32 16, ptr %6, align 8
  br label %.sink.split

76:                                               ; preds = %67
  %77 = shl nuw nsw i32 %64, 1
  %78 = load ptr, ptr %14, align 8
  %.not9.i10.i31 = icmp eq ptr %78, null
  %79 = zext nneg i32 %77 to i64
  %80 = shl nuw nsw i64 %79, 3
  br i1 %.not9.i10.i31, label %83, label %81

81:                                               ; preds = %76
  %82 = tail call ptr @realloc(ptr noundef nonnull %78, i64 noundef %80) #13
  br label %85

83:                                               ; preds = %76
  %84 = tail call noalias ptr @malloc(i64 noundef %80) #14
  br label %85

85:                                               ; preds = %83, %81
  %86 = phi ptr [ %82, %81 ], [ %84, %83 ]
  store ptr %86, ptr %14, align 8
  store i32 %77, ptr %6, align 8
  br label %.sink.split

.sink.split:                                      ; preds = %85, %Vec_PtrGrow.exit.i33, %.Vec_PtrGrow.exit11_crit_edge.i28, %52, %Vec_PtrGrow.exit.i, %.Vec_PtrGrow.exit11_crit_edge.i
  %.sink44 = phi i32 [ %31, %.Vec_PtrGrow.exit11_crit_edge.i ], [ %31, %Vec_PtrGrow.exit.i ], [ %31, %52 ], [ %64, %.Vec_PtrGrow.exit11_crit_edge.i28 ], [ %64, %Vec_PtrGrow.exit.i33 ], [ %64, %85 ]
  %.sink40 = phi ptr [ %.pre.i, %.Vec_PtrGrow.exit11_crit_edge.i ], [ %42, %Vec_PtrGrow.exit.i ], [ %53, %52 ], [ %.pre.i30, %.Vec_PtrGrow.exit11_crit_edge.i28 ], [ %75, %Vec_PtrGrow.exit.i33 ], [ %86, %85 ]
  %.sink = phi ptr [ %30, %.Vec_PtrGrow.exit11_crit_edge.i ], [ %30, %Vec_PtrGrow.exit.i ], [ %30, %52 ], [ %63, %.Vec_PtrGrow.exit11_crit_edge.i28 ], [ %63, %Vec_PtrGrow.exit.i33 ], [ %63, %85 ]
  %87 = add nsw i32 %.sink44, 1
  store i32 %87, ptr %8, align 4
  %88 = sext i32 %.sink44 to i64
  %89 = getelementptr inbounds ptr, ptr %.sink40, i64 %88
  store ptr %.sink, ptr %89, align 8
  br label %90

90:                                               ; preds = %.sink.split, %54
  %indvars.iv.next = add nuw nsw i64 %indvars.iv, 1
  %91 = load i32, ptr %16, align 8
  %92 = sext i32 %91 to i64
  %93 = icmp slt i64 %indvars.iv.next, %92
  br i1 %93, label %21, label %.critedge, !llvm.loop !7

.critedge:                                        ; preds = %21, %90, %Vec_PtrAlloc.exit
  ret ptr %6
}